; ModuleID = 'source-C-CXX/26/1606.c'
source_filename = "source-C-CXX/26/1606.c"
target datalayout = "e-m:e-p270:32:32-p271:32:32-p272:64:64-i64:64-f80:128-n8:16:32:64-S128"
target triple = "x86_64-pc-linux-gnu"

@.str = private unnamed_addr constant [3 x i8] c"%d\00", align 1
@.str.1 = private unnamed_addr constant [10 x i8] c"%lf%lf%lf\00", align 1
@.str.2 = private unnamed_addr constant [19 x i8] c"x1=%.5lf;x2=%.5lf\0A\00", align 1
@.str.3 = private unnamed_addr constant [13 x i8] c"x1=x2=%.5lf\0A\00", align 1
@.str.4 = private unnamed_addr constant [33 x i8] c"x1=%.5lf+%.5lfi;x2=%.5lf-%.5lfi\0A\00", align 1

; Function Attrs: nofree nounwind sspstrong uwtable
define dso_local i32 @main(i32 %0, i8** nocapture readnone %1) local_unnamed_addr #0 {
  %3 = alloca i32, align 4
  %4 = alloca double, align 8
  %5 = alloca double, align 8
  %6 = alloca double, align 8
  %7 = bitcast i32* %3 to i8*
  call void @llvm.lifetime.start.p0i8(i64 4, i8* nonnull %7) #4
  %8 = call i32 (i8*, ...) @__isoc99_scanf(i8* getelementptr inbounds ([3 x i8], [3 x i8]* @.str, i64 0, i64 0), i32* nonnull %3)
  %9 = bitcast double* %4 to i8*
  call void @llvm.lifetime.start.p0i8(i64 8, i8* nonnull %9) #4
  %10 = bitcast double* %5 to i8*
  call void @llvm.lifetime.start.p0i8(i64 8, i8* nonnull %10) #4
  %11 = bitcast double* %6 to i8*
  call void @llvm.lifetime.start.p0i8(i64 8, i8* nonnull %11) #4
  %12 = load i32, i32* %3, align 4, !tbaa !5
  %13 = icmp slt i32 %12, 1
  br i1 %13, label %67, label %14

14:                                               ; preds = %2, %63
  %15 = phi i32 [ %64, %63 ], [ 1, %2 ]
  %16 = call i32 (i8*, ...) @__isoc99_scanf(i8* getelementptr inbounds ([10 x i8], [10 x i8]* @.str.1, i64 0, i64 0), double* nonnull %4, double* nonnull %5, double* nonnull %6)
  %17 = load double, double* %5, align 8, !tbaa !9
  %18 = fmul double %17, %17
  %19 = load double, double* %4, align 8, !tbaa !9
  %20 = fmul double %19, 4.000000e+00
  %21 = load double, double* %6, align 8, !tbaa !9
  %22 = fmul double %20, %21
  %23 = fsub double %18, %22
  %24 = fcmp ogt double %23, 0.000000e+00
  br i1 %24, label %25, label %39

25:                                               ; preds = %14
  %26 = call double @sqrt(double %23) #4
  %27 = fsub double %26, %17
  %28 = load double, double* %4, align 8, !tbaa !9
  %29 = fmul double %28, 2.000000e+00
  %30 = fdiv double %27, %29
  %31 = load double, double* %5, align 8, !tbaa !9
  %32 = fneg double %31
  %33 = call double @sqrt(double %23) #4
  %34 = fsub double %32, %33
  %35 = load double, double* %4, align 8, !tbaa !9
  %36 = fmul double %35, 2.000000e+00
  %37 = fdiv double %34, %36
  %38 = call i32 (i8*, ...) @printf(i8* nonnull dereferenceable(1) getelementptr inbounds ([19 x i8], [19 x i8]* @.str.2, i64 0, i64 0), double %30, double %37)
  br label %63

39:                                               ; preds = %14
  %40 = fcmp oeq double %23, 0.000000e+00
  br i1 %40, label %41, label %46

41:                                               ; preds = %39
  %42 = fneg double %17
  %43 = fmul double %19, 2.000000e+00
  %44 = fdiv double %42, %43
  %45 = call i32 (i8*, ...) @printf(i8* nonnull dereferenceable(1) getelementptr inbounds ([13 x i8], [13 x i8]* @.str.3, i64 0, i64 0), double %44)
  br label %63

46:                                               ; preds = %39
  %47 = fcmp olt double %23, 0.000000e+00
  br i1 %47, label %48, label %63

48:                                               ; preds = %46
  %49 = fneg double %23
  %50 = call double @sqrt(double %49) #4
  %51 = load double, double* %4, align 8, !tbaa !9
  %52 = fmul double %51, 2.000000e+00
  %53 = fdiv double %50, %52
  %54 = load double, double* %5, align 8, !tbaa !9
  %55 = fneg double %54
  %56 = fdiv double %55, %52
  %57 = fcmp oeq double %56, 0.000000e+00
  br i1 %57, label %58, label %61

58:                                               ; preds = %48
  %59 = fneg double %56
  %60 = call i32 (i8*, ...) @printf(i8* nonnull dereferenceable(1) getelementptr inbounds ([33 x i8], [33 x i8]* @.str.4, i64 0, i64 0), double %59, double %53, double %59, double %53)
  br label %63

61:                                               ; preds = %48
  %62 = call i32 (i8*, ...) @printf(i8* nonnull dereferenceable(1) getelementptr inbounds ([33 x i8], [33 x i8]* @.str.4, i64 0, i64 0), double %56, double %53, double %56, double %53)
  br label %63

63:                                               ; preds = %25, %46, %61, %58, %41
  %64 = add nuw nsw i32 %15, 1
  %65 = load i32, i32* %3, align 4, !tbaa !5
  %66 = icmp slt i32 %15, %65
  br i1 %66, label %14, label %67, !llvm.loop !11

67:                                               ; preds = %63, %2
  call void @llvm.lifetime.end.p0i8(i64 8, i8* nonnull %11) #4
  call void @llvm.lifetime.end.p0i8(i64 8, i8* nonnull %10) #4
  call void @llvm.lifetime.end.p0i8(i64 8, i8* nonnull %9) #4
  call void @llvm.lifetime.end.p0i8(i64 4, i8* nonnull %7) #4
  ret i32 0
}

; Function Attrs: argmemonly mustprogress nofree nosync nounwind willreturn
declare void @llvm.lifetime.start.p0i8(i64 immarg, i8* nocapture) #1

; Function Attrs: nofree nounwind
declare noundef i32 @__isoc99_scanf(i8* nocapture noundef readonly, ...) local_unnamed_addr #2

; Function Attrs: mustprogress nofree nounwind willreturn
declare double @sqrt(double) local_unnamed_addr #3

; Function Attrs: nofree nounwind
declare noundef i32 @printf(i8* nocapture noundef readonly, ...) local_unnamed_addr #2

; Function Attrs: argmemonly mustprogress nofree nosync nounwind willreturn
declare void @llvm.lifetime.end.p0i8(i64 immarg, i8* nocapture) #1


!llvm.module.flags = !{!0, !1, !2, !3}
!llvm.ident = !{!4}

!0 = !{i32 1, !"wchar_size", i32 4}
!1 = !{i32 7, !"PIC Level", i32 2}
!2 = !{i32 7, !"PIE Level", i32 2}
!3 = !{i32 7, !"uwtable", i32 1}
!4 = !{!"clang version 13.0.0"}
!5 = !{!6, !6, i64 0}
!6 = !{!"int", !7, i64 0}
!7 = !{!"omnipotent char", !8, i64 0}
!8 = !{!"Simple C/C++ TBAA"}
!9 = !{!10, !10, i64 0}
!10 = !{!"double", !7, i64 0}
!11 = distinct !{!11, !12}
!12 = !{!"llvm.loop.mustprogress"}
